; Function Attrs: nounwind uwtable
define hidden void @_cmsAllocLogErrorChunk(ptr nocapture noundef %0, ptr noundef readonly %1) local_unnamed_addr #6 {
  %.not = icmp eq ptr %1, null
  br i1 %.not, label %.thread, label %3

3:                                                ; preds = %2
  %4 = getelementptr inbounds i8, ptr %1, i64 24
  %5 = load ptr, ptr %4, align 8
  %6 = icmp eq ptr %5, null
  br i1 %6, label %_cmsSubAllocDup.exit, label %.thread

.thread:                                          ; preds = %2, %3
  %.07 = phi ptr [ %5, %3 ], [ @_cmsAllocLogErrorChunk.LogErrorChunk, %2 ]
  %.in = getelementptr inbounds i8, ptr %0, i64 8
  %7 = load ptr, ptr %.in, align 8
  %8 = tail call ptr @_cmsSubAlloc(ptr noundef %7, i32 noundef 8)
  %.not.i = icmp eq ptr %8, null
  br i1 %.not.i, label %_cmsSubAllocDup.exit, label %9

9:                                                ; preds = %.thread
  %10 = load i64, ptr %.07, align 1
  store i64 %10, ptr %8, align 1
  br label %_cmsSubAllocDup.exit

_cmsSubAllocDup.exit:                             ; preds = %3, %.thread, %9
  %.0.i = phi ptr [ null, %3 ], [ %8, %9 ], [ null, %.thread ]
  %11 = getelementptr inbounds i8, ptr %0, i64 24
  store ptr %.0.i, ptr %11, align 8
  ret void
}